ARM GAS  /var/folders/wz/z09yph4n0qj4t7mjxhl6ttn80000gn/T//cco2iwTC.s 			page 1


   1              		.cpu cortex-m7
   2              		.arch armv7e-m
   3              		.fpu fpv5-d16
   4              		.eabi_attribute 28, 1
   5              		.eabi_attribute 20, 1
   6              		.eabi_attribute 21, 1
   7              		.eabi_attribute 23, 3
   8              		.eabi_attribute 24, 1
   9              		.eabi_attribute 25, 1
  10              		.eabi_attribute 26, 1
  11              		.eabi_attribute 30, 4
  12              		.eabi_attribute 34, 1
  13              		.eabi_attribute 18, 4
  14              		.file	"comb.cpp"
  15              		.text
  16              	.Ltext0:
  17              		.cfi_sections	.debug_frame
  18              		.section	.text._ZN4combC2Ev,"ax",%progbits
  19              		.align	1
  20              		.global	_ZN4combC2Ev
  21              		.syntax unified
  22              		.thumb
  23              		.thumb_func
  25              	_ZN4combC2Ev:
  26              	.LVL0:
  27              	.LFB546:
  28              		.file 1 "DSP/FX/Reverb/comb.cpp"
   1:DSP/FX/Reverb/comb.cpp **** // Comb filter implementation
   2:DSP/FX/Reverb/comb.cpp **** //
   3:DSP/FX/Reverb/comb.cpp **** // Written by Jezar at Dreampoint, June 2000
   4:DSP/FX/Reverb/comb.cpp **** // http://www.dreampoint.co.uk
   5:DSP/FX/Reverb/comb.cpp **** // This code is public domain
   6:DSP/FX/Reverb/comb.cpp **** 
   7:DSP/FX/Reverb/comb.cpp **** #include "comb.hpp"
   8:DSP/FX/Reverb/comb.cpp **** 
   9:DSP/FX/Reverb/comb.cpp **** comb::comb()
  29              		.loc 1 9 1 view -0
  30              		.cfi_startproc
  31              		@ args = 0, pretend = 0, frame = 0
  32              		@ frame_needed = 0, uses_anonymous_args = 0
  33              		@ link register save eliminated.
  34              	.LBB2:
  10:DSP/FX/Reverb/comb.cpp **** {
  11:DSP/FX/Reverb/comb.cpp **** 	filterstore = 0;
  35              		.loc 1 11 2 view .LVU1
  36              		.loc 1 11 14 is_stmt 0 view .LVU2
  37 0000 0022     		movs	r2, #0
  38 0002 4260     		str	r2, [r0, #4]	@ float
  12:DSP/FX/Reverb/comb.cpp **** 	bufidx = 0;
  39              		.loc 1 12 2 is_stmt 1 view .LVU3
  40              		.loc 1 12 9 is_stmt 0 view .LVU4
  41 0004 0022     		movs	r2, #0
  42 0006 8261     		str	r2, [r0, #24]
  43              	.LBE2:
  13:DSP/FX/Reverb/comb.cpp **** }
  44              		.loc 1 13 1 view .LVU5
  45 0008 7047     		bx	lr
ARM GAS  /var/folders/wz/z09yph4n0qj4t7mjxhl6ttn80000gn/T//cco2iwTC.s 			page 2


  46              		.cfi_endproc
  47              	.LFE546:
  49              		.global	_ZN4combC1Ev
  50              		.thumb_set _ZN4combC1Ev,_ZN4combC2Ev
  51              		.section	.text._ZN4comb9setbufferEPfi,"ax",%progbits
  52              		.align	1
  53              		.global	_ZN4comb9setbufferEPfi
  54              		.syntax unified
  55              		.thumb
  56              		.thumb_func
  58              	_ZN4comb9setbufferEPfi:
  59              	.LVL1:
  60              	.LFB548:
  14:DSP/FX/Reverb/comb.cpp **** 
  15:DSP/FX/Reverb/comb.cpp **** void comb::setbuffer(float *buf, int size) 
  16:DSP/FX/Reverb/comb.cpp **** {
  61              		.loc 1 16 1 is_stmt 1 view -0
  62              		.cfi_startproc
  63              		@ args = 0, pretend = 0, frame = 0
  64              		@ frame_needed = 0, uses_anonymous_args = 0
  65              		@ link register save eliminated.
  17:DSP/FX/Reverb/comb.cpp **** 	buffer = buf; 
  66              		.loc 1 17 2 view .LVU7
  18:DSP/FX/Reverb/comb.cpp **** 	bufsize = size;
  67              		.loc 1 18 10 is_stmt 0 view .LVU8
  68 0000 C0E90412 		strd	r1, r2, [r0, #16]
  19:DSP/FX/Reverb/comb.cpp **** }
  69              		.loc 1 19 1 view .LVU9
  70 0004 7047     		bx	lr
  71              		.cfi_endproc
  72              	.LFE548:
  74              		.section	.text._ZN4comb4muteEv,"ax",%progbits
  75              		.align	1
  76              		.global	_ZN4comb4muteEv
  77              		.syntax unified
  78              		.thumb
  79              		.thumb_func
  81              	_ZN4comb4muteEv:
  82              	.LVL2:
  83              	.LFB549:
  20:DSP/FX/Reverb/comb.cpp **** 
  21:DSP/FX/Reverb/comb.cpp **** void comb::mute()
  22:DSP/FX/Reverb/comb.cpp **** {
  84              		.loc 1 22 1 is_stmt 1 view -0
  85              		.cfi_startproc
  86              		@ args = 0, pretend = 0, frame = 0
  87              		@ frame_needed = 0, uses_anonymous_args = 0
  23:DSP/FX/Reverb/comb.cpp **** 	for (int i=0; i<bufsize; i++)
  88              		.loc 1 23 2 view .LVU11
  22:DSP/FX/Reverb/comb.cpp **** 	for (int i=0; i<bufsize; i++)
  89              		.loc 1 22 1 is_stmt 0 view .LVU12
  90 0000 10B5     		push	{r4, lr}
  91              		.cfi_def_cfa_offset 8
  92              		.cfi_offset 4, -8
  93              		.cfi_offset 14, -4
  94              	.LBB3:
  95              		.loc 1 23 11 view .LVU13
ARM GAS  /var/folders/wz/z09yph4n0qj4t7mjxhl6ttn80000gn/T//cco2iwTC.s 			page 3


  96 0002 0023     		movs	r3, #0
  97              		.loc 1 23 18 view .LVU14
  98 0004 4469     		ldr	r4, [r0, #20]
  99              	.LVL3:
 100              	.L5:
 101              		.loc 1 23 17 is_stmt 1 discriminator 3 view .LVU15
 102 0006 9C42     		cmp	r4, r3
 103 0008 06DD     		ble	.L3
  24:DSP/FX/Reverb/comb.cpp **** 		buffer[i]=0;
 104              		.loc 1 24 3 discriminator 2 view .LVU16
 105              		.loc 1 24 12 is_stmt 0 discriminator 2 view .LVU17
 106 000a 0269     		ldr	r2, [r0, #16]
 107 000c 0021     		movs	r1, #0
 108 000e 02EB8302 		add	r2, r2, r3, lsl #2
  23:DSP/FX/Reverb/comb.cpp **** 	for (int i=0; i<bufsize; i++)
 109              		.loc 1 23 2 discriminator 2 view .LVU18
 110 0012 0133     		adds	r3, r3, #1
 111              	.LVL4:
 112              		.loc 1 24 12 discriminator 2 view .LVU19
 113 0014 1160     		str	r1, [r2]	@ float
  23:DSP/FX/Reverb/comb.cpp **** 	for (int i=0; i<bufsize; i++)
 114              		.loc 1 23 2 is_stmt 1 discriminator 2 view .LVU20
 115              	.LVL5:
  23:DSP/FX/Reverb/comb.cpp **** 	for (int i=0; i<bufsize; i++)
 116              		.loc 1 23 2 is_stmt 0 discriminator 2 view .LVU21
 117 0016 F6E7     		b	.L5
 118              	.L3:
  23:DSP/FX/Reverb/comb.cpp **** 	for (int i=0; i<bufsize; i++)
 119              		.loc 1 23 2 discriminator 2 view .LVU22
 120              	.LBE3:
  25:DSP/FX/Reverb/comb.cpp **** }
 121              		.loc 1 25 1 view .LVU23
 122 0018 10BD     		pop	{r4, pc}
 123              		.cfi_endproc
 124              	.LFE549:
 126              		.section	.text._ZN4comb7setdampEf,"ax",%progbits
 127              		.align	1
 128              		.global	_ZN4comb7setdampEf
 129              		.syntax unified
 130              		.thumb
 131              		.thumb_func
 133              	_ZN4comb7setdampEf:
 134              	.LVL6:
 135              	.LFB550:
  26:DSP/FX/Reverb/comb.cpp **** 
  27:DSP/FX/Reverb/comb.cpp **** void comb::setdamp(float val) 
  28:DSP/FX/Reverb/comb.cpp **** {
 136              		.loc 1 28 1 is_stmt 1 view -0
 137              		.cfi_startproc
 138              		@ args = 0, pretend = 0, frame = 0
 139              		@ frame_needed = 0, uses_anonymous_args = 0
 140              		@ link register save eliminated.
  29:DSP/FX/Reverb/comb.cpp **** 	damp1 = val; 
 141              		.loc 1 29 2 view .LVU25
  30:DSP/FX/Reverb/comb.cpp **** 	damp2 = 1-val;
 142              		.loc 1 30 11 is_stmt 0 view .LVU26
 143 0000 F7EE007A 		vmov.f32	s15, #1.0e+0
ARM GAS  /var/folders/wz/z09yph4n0qj4t7mjxhl6ttn80000gn/T//cco2iwTC.s 			page 4


  29:DSP/FX/Reverb/comb.cpp **** 	damp1 = val; 
 144              		.loc 1 29 8 view .LVU27
 145 0004 80ED020A 		vstr.32	s0, [r0, #8]
 146              		.loc 1 30 2 is_stmt 1 view .LVU28
 147              		.loc 1 30 11 is_stmt 0 view .LVU29
 148 0008 37EEC00A 		vsub.f32	s0, s15, s0
 149              	.LVL7:
 150              		.loc 1 30 8 view .LVU30
 151 000c 80ED030A 		vstr.32	s0, [r0, #12]
  31:DSP/FX/Reverb/comb.cpp **** }
 152              		.loc 1 31 1 view .LVU31
 153 0010 7047     		bx	lr
 154              		.cfi_endproc
 155              	.LFE550:
 157              		.section	.text._ZN4comb7getdampEv,"ax",%progbits
 158              		.align	1
 159              		.global	_ZN4comb7getdampEv
 160              		.syntax unified
 161              		.thumb
 162              		.thumb_func
 164              	_ZN4comb7getdampEv:
 165              	.LVL8:
 166              	.LFB551:
  32:DSP/FX/Reverb/comb.cpp **** 
  33:DSP/FX/Reverb/comb.cpp **** float comb::getdamp() 
  34:DSP/FX/Reverb/comb.cpp **** {
 167              		.loc 1 34 1 is_stmt 1 view -0
 168              		.cfi_startproc
 169              		@ args = 0, pretend = 0, frame = 0
 170              		@ frame_needed = 0, uses_anonymous_args = 0
 171              		@ link register save eliminated.
  35:DSP/FX/Reverb/comb.cpp **** 	return damp1;
 172              		.loc 1 35 2 view .LVU33
  36:DSP/FX/Reverb/comb.cpp **** }
 173              		.loc 1 36 1 is_stmt 0 view .LVU34
 174 0000 90ED020A 		vldr.32	s0, [r0, #8]
 175 0004 7047     		bx	lr
 176              		.cfi_endproc
 177              	.LFE551:
 179              		.section	.text._ZN4comb11setfeedbackEf,"ax",%progbits
 180              		.align	1
 181              		.global	_ZN4comb11setfeedbackEf
 182              		.syntax unified
 183              		.thumb
 184              		.thumb_func
 186              	_ZN4comb11setfeedbackEf:
 187              	.LVL9:
 188              	.LFB552:
  37:DSP/FX/Reverb/comb.cpp **** 
  38:DSP/FX/Reverb/comb.cpp **** void comb::setfeedback(float val) 
  39:DSP/FX/Reverb/comb.cpp **** {
 189              		.loc 1 39 1 is_stmt 1 view -0
 190              		.cfi_startproc
 191              		@ args = 0, pretend = 0, frame = 0
 192              		@ frame_needed = 0, uses_anonymous_args = 0
 193              		@ link register save eliminated.
  40:DSP/FX/Reverb/comb.cpp **** 	feedback = val;
ARM GAS  /var/folders/wz/z09yph4n0qj4t7mjxhl6ttn80000gn/T//cco2iwTC.s 			page 5


 194              		.loc 1 40 2 view .LVU36
 195              		.loc 1 40 11 is_stmt 0 view .LVU37
 196 0000 80ED000A 		vstr.32	s0, [r0]
  41:DSP/FX/Reverb/comb.cpp **** }
 197              		.loc 1 41 1 view .LVU38
 198 0004 7047     		bx	lr
 199              		.cfi_endproc
 200              	.LFE552:
 202              		.section	.text._ZN4comb11getfeedbackEv,"ax",%progbits
 203              		.align	1
 204              		.global	_ZN4comb11getfeedbackEv
 205              		.syntax unified
 206              		.thumb
 207              		.thumb_func
 209              	_ZN4comb11getfeedbackEv:
 210              	.LVL10:
 211              	.LFB553:
  42:DSP/FX/Reverb/comb.cpp **** 
  43:DSP/FX/Reverb/comb.cpp **** float comb::getfeedback() 
  44:DSP/FX/Reverb/comb.cpp **** {
 212              		.loc 1 44 1 is_stmt 1 view -0
 213              		.cfi_startproc
 214              		@ args = 0, pretend = 0, frame = 0
 215              		@ frame_needed = 0, uses_anonymous_args = 0
 216              		@ link register save eliminated.
  45:DSP/FX/Reverb/comb.cpp **** 	return feedback;
 217              		.loc 1 45 2 view .LVU40
  46:DSP/FX/Reverb/comb.cpp **** }
 218              		.loc 1 46 1 is_stmt 0 view .LVU41
 219 0000 90ED000A 		vldr.32	s0, [r0]
 220 0004 7047     		bx	lr
 221              		.cfi_endproc
 222              	.LFE553:
 224              		.text
 225              	.Letext0:
 226              		.file 2 "/Library/DaisyToolchain/0.2.0/arm/arm-none-eabi/include/c++/10.3.1/cmath"
 227              		.file 3 "/Library/DaisyToolchain/0.2.0/arm/arm-none-eabi/include/c++/10.3.1/bits/std_abs.h"
 228              		.file 4 "/Library/DaisyToolchain/0.2.0/arm/arm-none-eabi/include/c++/10.3.1/arm-none-eabi/thumb/v7
 229              		.file 5 "/Library/DaisyToolchain/0.2.0/arm/arm-none-eabi/include/math.h"
 230              		.file 6 "/Library/DaisyToolchain/0.2.0/arm/arm-none-eabi/include/c++/10.3.1/math.h"
 231              		.file 7 "DSP/FX/Reverb/comb.hpp"
 232              		.file 8 "<built-in>"
ARM GAS  /var/folders/wz/z09yph4n0qj4t7mjxhl6ttn80000gn/T//cco2iwTC.s 			page 6

